; Function Attrs: mustprogress uwtable
define dso_local i64 @_ZN13cmSystemTools26SetLogicalWorkingDirectoryERKNSt7__cxx1112basic_stringIcSt11char_traitsIcESaIcEEE(ptr noundef nonnull align 8 dereferenceable(32) %0) local_unnamed_addr #3 align 2 {
  %2 = tail call i64 @_ZN5cmsys11SystemTools15ChangeDirectoryERKNSt7__cxx1112basic_stringIcSt11char_traitsIcESaIcEEE(ptr noundef nonnull align 8 dereferenceable(32) %0)
  %3 = and i64 %2, 4294967295
  %4 = icmp eq i64 %3, 0
  br i1 %4, label %5, label %6

5:                                                ; preds = %1
  tail call void @_ZNSt7__cxx1112basic_stringIcSt11char_traitsIcESaIcEE9_M_assignERKS4_(ptr noundef nonnull align 8 dereferenceable(32) @_ZN12_GLOBAL__N_136cmSystemToolsLogicalWorkingDirectoryB5cxx11E, ptr noundef nonnull align 8 dereferenceable(32) %0)
  br label %6

6:                                                ; preds = %5, %1
  ret i64 %2
}